target datalayout = "e-m:e-p270:32:32-p271:32:32-p272:64:64-i64:64-i128:128-f80:128-n8:16:32:64-S128"
target triple = "x86_64-pc-linux-gnu"

%union.pthread_mutex_t = type { %struct.__pthread_mutex_s }
%struct.__pthread_mutex_s = type { i32, i32, i32, i32, i32, i16, i16, %struct.__pthread_internal_list }
%struct.__pthread_internal_list = type { ptr, ptr }
%struct.free_block = type { %struct.block_header, ptr, ptr, i64 }
%struct.block_header = type { i64, i64 }

@allocator_lock = internal global %union.pthread_mutex_t zeroinitializer, align 8
@free_blocks = internal global ptr null, align 8
@allocated_size = internal global i64 0, align 8
@total_size = internal global i64 0, align 8

; Function Attrs: nounwind uwtable
define internal void @free_chunk(ptr noundef %0, i64 noundef %1) #0 {
  %3 = alloca ptr, align 8
  %4 = alloca i64, align 8
  store ptr %0, ptr %3, align 8
  store i64 %1, ptr %4, align 8
  %5 = load ptr, ptr %3, align 8
  %6 = load i64, ptr %4, align 8
  %7 = call i32 @munmap(ptr noundef %5, i64 noundef %6) #6
  ret void
}

; Function Attrs: nounwind uwtable
define internal void @sljit_remove_free_block(ptr noundef %0) #0 {
  %2 = alloca ptr, align 8
  store ptr %0, ptr %2, align 8
  %3 = load ptr, ptr %2, align 8
  %4 = getelementptr inbounds %struct.free_block, ptr %3, i32 0, i32 1
  %5 = load ptr, ptr %4, align 8
  %6 = icmp ne ptr %5, null
  br i1 %6, label %7, label %15

7:                                                ; preds = %1
  %8 = load ptr, ptr %2, align 8
  %9 = getelementptr inbounds %struct.free_block, ptr %8, i32 0, i32 2
  %10 = load ptr, ptr %9, align 8
  %11 = load ptr, ptr %2, align 8
  %12 = getelementptr inbounds %struct.free_block, ptr %11, i32 0, i32 1
  %13 = load ptr, ptr %12, align 8
  %14 = getelementptr inbounds %struct.free_block, ptr %13, i32 0, i32 2
  store ptr %10, ptr %14, align 8
  br label %15

15:                                               ; preds = %7, %1
  %16 = load ptr, ptr %2, align 8
  %17 = getelementptr inbounds %struct.free_block, ptr %16, i32 0, i32 2
  %18 = load ptr, ptr %17, align 8
  %19 = icmp ne ptr %18, null
  br i1 %19, label %20, label %28

20:                                               ; preds = %15
  %21 = load ptr, ptr %2, align 8
  %22 = getelementptr inbounds %struct.free_block, ptr %21, i32 0, i32 1
  %23 = load ptr, ptr %22, align 8
  %24 = load ptr, ptr %2, align 8
  %25 = getelementptr inbounds %struct.free_block, ptr %24, i32 0, i32 2
  %26 = load ptr, ptr %25, align 8
  %27 = getelementptr inbounds %struct.free_block, ptr %26, i32 0, i32 1
  store ptr %23, ptr %27, align 8
  br label %34

28:                                               ; preds = %15
  br label %29

29:                                               ; preds = %28
  br label %30

30:                                               ; preds = %29
  %31 = load ptr, ptr %2, align 8
  %32 = getelementptr inbounds %struct.free_block, ptr %31, i32 0, i32 1
  %33 = load ptr, ptr %32, align 8
  store ptr %33, ptr @free_blocks, align 8
  br label %34

34:                                               ; preds = %30, %20
  ret void
}

; Function Attrs: nounwind uwtable
define internal void @sljit_insert_free_block(ptr noundef %0, i64 noundef %1) #0 {
  %3 = alloca ptr, align 8
  %4 = alloca i64, align 8
  store ptr %0, ptr %3, align 8
  store i64 %1, ptr %4, align 8
  %5 = load ptr, ptr %3, align 8
  %6 = getelementptr inbounds %struct.free_block, ptr %5, i32 0, i32 0
  %7 = getelementptr inbounds %struct.block_header, ptr %6, i32 0, i32 0
  store i64 0, ptr %7, align 8
  %8 = load i64, ptr %4, align 8
  %9 = load ptr, ptr %3, align 8
  %10 = getelementptr inbounds %struct.free_block, ptr %9, i32 0, i32 3
  store i64 %8, ptr %10, align 8
  %11 = load ptr, ptr @free_blocks, align 8
  %12 = load ptr, ptr %3, align 8
  %13 = getelementptr inbounds %struct.free_block, ptr %12, i32 0, i32 1
  store ptr %11, ptr %13, align 8
  %14 = load ptr, ptr %3, align 8
  %15 = getelementptr inbounds %struct.free_block, ptr %14, i32 0, i32 2
  store ptr null, ptr %15, align 8
  %16 = load ptr, ptr @free_blocks, align 8
  %17 = icmp ne ptr %16, null
  br i1 %17, label %18, label %22

18:                                               ; preds = %2
  %19 = load ptr, ptr %3, align 8
  %20 = load ptr, ptr @free_blocks, align 8
  %21 = getelementptr inbounds %struct.free_block, ptr %20, i32 0, i32 2
  store ptr %19, ptr %21, align 8
  br label %22

22:                                               ; preds = %18, %2
  %23 = load ptr, ptr %3, align 8
  store ptr %23, ptr @free_blocks, align 8
  ret void
}

; Function Attrs: nounwind uwtable
define internal void @sljit_free_exec(ptr noundef %0) #0 {
  %2 = alloca ptr, align 8
  %3 = alloca ptr, align 8
  %4 = alloca ptr, align 8
  store ptr %0, ptr %2, align 8
  %5 = call i32 @pthread_mutex_lock(ptr noundef @allocator_lock) #6
  %6 = load ptr, ptr %2, align 8
  %7 = getelementptr inbounds i8, ptr %6, i64 -16
  store ptr %7, ptr %3, align 8
  %8 = load ptr, ptr %3, align 8
  %9 = getelementptr inbounds %struct.block_header, ptr %8, i32 0, i32 0
  %10 = load i64, ptr %9, align 8
  %11 = load i64, ptr @allocated_size, align 8
  %12 = sub i64 %11, %10
  store i64 %12, ptr @allocated_size, align 8
  %13 = load ptr, ptr %3, align 8
  %14 = load ptr, ptr %3, align 8
  %15 = getelementptr inbounds %struct.block_header, ptr %14, i32 0, i32 1
  %16 = load i64, ptr %15, align 8
  %17 = sub nsw i64 0, %16
  %18 = getelementptr inbounds i8, ptr %13, i64 %17
  store ptr %18, ptr %4, align 8
  %19 = load ptr, ptr %4, align 8
  %20 = getelementptr inbounds %struct.free_block, ptr %19, i32 0, i32 0
  %21 = getelementptr inbounds %struct.block_header, ptr %20, i32 0, i32 0
  %22 = load i64, ptr %21, align 8
  %23 = icmp ne i64 %22, 0
  %24 = xor i1 %23, true
  %25 = zext i1 %24 to i32
  %26 = sext i32 %25 to i64
  %27 = icmp ne i64 %26, 0
  br i1 %27, label %28, label %46

28:                                               ; preds = %1
  %29 = load ptr, ptr %3, align 8
  %30 = getelementptr inbounds %struct.block_header, ptr %29, i32 0, i32 0
  %31 = load i64, ptr %30, align 8
  %32 = load ptr, ptr %4, align 8
  %33 = getelementptr inbounds %struct.free_block, ptr %32, i32 0, i32 3
  %34 = load i64, ptr %33, align 8
  %35 = add i64 %34, %31
  store i64 %35, ptr %33, align 8
  %36 = load ptr, ptr %4, align 8
  %37 = load ptr, ptr %4, align 8
  %38 = getelementptr inbounds %struct.free_block, ptr %37, i32 0, i32 3
  %39 = load i64, ptr %38, align 8
  %40 = getelementptr inbounds i8, ptr %36, i64 %39
  store ptr %40, ptr %3, align 8
  %41 = load ptr, ptr %4, align 8
  %42 = getelementptr inbounds %struct.free_block, ptr %41, i32 0, i32 3
  %43 = load i64, ptr %42, align 8
  %44 = load ptr, ptr %3, align 8
  %45 = getelementptr inbounds %struct.block_header, ptr %44, i32 0, i32 1
  store i64 %43, ptr %45, align 8
  br label %52

46:                                               ; preds = %1
  %47 = load ptr, ptr %3, align 8
  store ptr %47, ptr %4, align 8
  %48 = load ptr, ptr %4, align 8
  %49 = load ptr, ptr %3, align 8
  %50 = getelementptr inbounds %struct.block_header, ptr %49, i32 0, i32 0
  %51 = load i64, ptr %50, align 8
  call void @sljit_insert_free_block(ptr noundef %48, i64 noundef %51)
  br label %52

52:                                               ; preds = %46, %28
  %53 = load ptr, ptr %4, align 8
  %54 = load ptr, ptr %4, align 8
  %55 = getelementptr inbounds %struct.free_block, ptr %54, i32 0, i32 3
  %56 = load i64, ptr %55, align 8
  %57 = getelementptr inbounds i8, ptr %53, i64 %56
  store ptr %57, ptr %3, align 8
  %58 = load ptr, ptr %3, align 8
  %59 = getelementptr inbounds %struct.block_header, ptr %58, i32 0, i32 0
  %60 = load i64, ptr %59, align 8
  %61 = icmp ne i64 %60, 0
  %62 = xor i1 %61, true
  %63 = zext i1 %62 to i32
  %64 = sext i32 %63 to i64
  %65 = icmp ne i64 %64, 0
  br i1 %65, label %66, label %85

66:                                               ; preds = %52
  %67 = load ptr, ptr %3, align 8
  %68 = getelementptr inbounds %struct.free_block, ptr %67, i32 0, i32 3
  %69 = load i64, ptr %68, align 8
  %70 = load ptr, ptr %4, align 8
  %71 = getelementptr inbounds %struct.free_block, ptr %70, i32 0, i32 3
  %72 = load i64, ptr %71, align 8
  %73 = add i64 %72, %69
  store i64 %73, ptr %71, align 8
  %74 = load ptr, ptr %3, align 8
  call void @sljit_remove_free_block(ptr noundef %74)
  %75 = load ptr, ptr %4, align 8
  %76 = load ptr, ptr %4, align 8
  %77 = getelementptr inbounds %struct.free_block, ptr %76, i32 0, i32 3
  %78 = load i64, ptr %77, align 8
  %79 = getelementptr inbounds i8, ptr %75, i64 %78
  store ptr %79, ptr %3, align 8
  %80 = load ptr, ptr %4, align 8
  %81 = getelementptr inbounds %struct.free_block, ptr %80, i32 0, i32 3
  %82 = load i64, ptr %81, align 8
  %83 = load ptr, ptr %3, align 8
  %84 = getelementptr inbounds %struct.block_header, ptr %83, i32 0, i32 1
  store i64 %82, ptr %84, align 8
  br label %85

85:                                               ; preds = %66, %52
  %86 = load ptr, ptr %4, align 8
  %87 = getelementptr inbounds %struct.free_block, ptr %86, i32 0, i32 0
  %88 = getelementptr inbounds %struct.block_header, ptr %87, i32 0, i32 1
  %89 = load i64, ptr %88, align 8
  %90 = icmp ne i64 %89, 0
  br i1 %90, label %96, label %91

91:                                               ; preds = %85
  %92 = load ptr, ptr %3, align 8
  %93 = getelementptr inbounds %struct.block_header, ptr %92, i32 0, i32 0
  %94 = load i64, ptr %93, align 8
  %95 = icmp eq i64 %94, 1
  br label %96

96:                                               ; preds = %91, %85
  %97 = phi i1 [ false, %85 ], [ %95, %91 ]
  %98 = zext i1 %97 to i32
  %99 = sext i32 %98 to i64
  %100 = icmp ne i64 %99, 0
  br i1 %100, label %101, label %124

101:                                              ; preds = %96
  %102 = load i64, ptr @total_size, align 8
  %103 = load ptr, ptr %4, align 8
  %104 = getelementptr inbounds %struct.free_block, ptr %103, i32 0, i32 3
  %105 = load i64, ptr %104, align 8
  %106 = sub i64 %102, %105
  %107 = load i64, ptr @allocated_size, align 8
  %108 = mul i64 %107, 3
  %109 = udiv i64 %108, 2
  %110 = icmp ugt i64 %106, %109
  br i1 %110, label %111, label %123

111:                                              ; preds = %101
  %112 = load ptr, ptr %4, align 8
  %113 = getelementptr inbounds %struct.free_block, ptr %112, i32 0, i32 3
  %114 = load i64, ptr %113, align 8
  %115 = load i64, ptr @total_size, align 8
  %116 = sub i64 %115, %114
  store i64 %116, ptr @total_size, align 8
  %117 = load ptr, ptr %4, align 8
  call void @sljit_remove_free_block(ptr noundef %117)
  %118 = load ptr, ptr %4, align 8
  %119 = load ptr, ptr %4, align 8
  %120 = getelementptr inbounds %struct.free_block, ptr %119, i32 0, i32 3
  %121 = load i64, ptr %120, align 8
  %122 = add i64 %121, 16
  call void @free_chunk(ptr noundef %118, i64 noundef %122)
  br label %123

123:                                              ; preds = %111, %101
  br label %124

124:                                              ; preds = %123, %96
  %125 = call i32 @pthread_mutex_unlock(ptr noundef @allocator_lock) #6
  ret void
}