; Function Attrs: nounwind uwtable
define internal fastcc void @sljit_free_exec(ptr noundef %0) unnamed_addr #0 {
  %2 = tail call i32 @pthread_mutex_lock(ptr noundef nonnull @allocator_lock) #18
  %3 = getelementptr inbounds i8, ptr %0, i64 -16
  %4 = load i64, ptr %3, align 8
  %5 = load i64, ptr @allocated_size, align 8
  %6 = sub i64 %5, %4
  store i64 %6, ptr @allocated_size, align 8
  %7 = getelementptr inbounds i8, ptr %0, i64 -8
  %8 = load i64, ptr %7, align 8
  %9 = sub nsw i64 0, %8
  %10 = getelementptr inbounds i8, ptr %3, i64 %9
  %11 = load i64, ptr %10, align 8
  %.not = icmp eq i64 %11, 0
  br i1 %.not, label %12, label %18

12:                                               ; preds = %1
  %13 = getelementptr inbounds i8, ptr %10, i64 32
  %14 = load i64, ptr %13, align 8
  %15 = add i64 %14, %4
  store i64 %15, ptr %13, align 8
  %16 = getelementptr inbounds i8, ptr %10, i64 %15
  %17 = getelementptr inbounds i8, ptr %16, i64 8
  store i64 %15, ptr %17, align 8
  br label %24

18:                                               ; preds = %1
  store i64 0, ptr %3, align 8
  %19 = getelementptr inbounds i8, ptr %0, i64 16
  store i64 %4, ptr %19, align 8
  %20 = load ptr, ptr @free_blocks, align 8
  store ptr %20, ptr %0, align 8
  %21 = getelementptr inbounds i8, ptr %0, i64 8
  store ptr null, ptr %21, align 8
  %.not.i = icmp eq ptr %20, null
  br i1 %.not.i, label %sljit_insert_free_block.exit, label %22

22:                                               ; preds = %18
  %23 = getelementptr inbounds i8, ptr %20, i64 24
  store ptr %3, ptr %23, align 8
  br label %sljit_insert_free_block.exit

sljit_insert_free_block.exit:                     ; preds = %18, %22
  store ptr %3, ptr @free_blocks, align 8
  br label %24

24:                                               ; preds = %sljit_insert_free_block.exit, %12
  %.0 = phi ptr [ %10, %12 ], [ %3, %sljit_insert_free_block.exit ]
  %25 = getelementptr inbounds i8, ptr %.0, i64 32
  %26 = load i64, ptr %25, align 8
  %27 = getelementptr inbounds i8, ptr %.0, i64 %26
  %28 = load i64, ptr %27, align 8
  %.not33 = icmp eq i64 %28, 0
  br i1 %.not33, label %29, label %42

29:                                               ; preds = %24
  %30 = getelementptr inbounds i8, ptr %27, i64 32
  %31 = load i64, ptr %30, align 8
  %32 = add i64 %31, %26
  store i64 %32, ptr %25, align 8
  %33 = getelementptr inbounds i8, ptr %27, i64 16
  %34 = load ptr, ptr %33, align 8
  %.not.i35 = icmp eq ptr %34, null
  %.phi.trans.insert.i = getelementptr inbounds i8, ptr %27, i64 24
  %.pre.i = load ptr, ptr %.phi.trans.insert.i, align 8
  br i1 %.not.i35, label %sljit_remove_free_block.exit, label %35

35:                                               ; preds = %29
  %36 = getelementptr inbounds i8, ptr %34, i64 24
  store ptr %.pre.i, ptr %36, align 8
  %.pre = load ptr, ptr %33, align 8
  br label %sljit_remove_free_block.exit

sljit_remove_free_block.exit:                     ; preds = %29, %35
  %37 = phi ptr [ null, %29 ], [ %.pre, %35 ]
  %.not8.i = icmp eq ptr %.pre.i, null
  %38 = getelementptr inbounds i8, ptr %.pre.i, i64 16
  %free_blocks.sink.i = select i1 %.not8.i, ptr @free_blocks, ptr %38
  store ptr %37, ptr %free_blocks.sink.i, align 8
  %39 = load i64, ptr %25, align 8
  %40 = getelementptr inbounds i8, ptr %.0, i64 %39
  %41 = getelementptr inbounds i8, ptr %40, i64 8
  store i64 %39, ptr %41, align 8
  br label %42

42:                                               ; preds = %sljit_remove_free_block.exit, %24
  %43 = phi i64 [ %39, %sljit_remove_free_block.exit ], [ %26, %24 ]
  %.031 = phi ptr [ %40, %sljit_remove_free_block.exit ], [ %27, %24 ]
  %44 = getelementptr inbounds i8, ptr %.0, i64 8
  %45 = load i64, ptr %44, align 8
  %.not34 = icmp eq i64 %45, 0
  br i1 %.not34, label %46, label %.critedge

46:                                               ; preds = %42
  %47 = load i64, ptr %.031, align 8
  %48 = icmp eq i64 %47, 1
  br i1 %48, label %49, label %.critedge

49:                                               ; preds = %46
  %50 = load i64, ptr @total_size, align 8
  %51 = sub i64 %50, %43
  %52 = mul i64 %6, 3
  %53 = lshr i64 %52, 1
  %54 = icmp ugt i64 %51, %53
  br i1 %54, label %55, label %.critedge

55:                                               ; preds = %49
  store i64 %51, ptr @total_size, align 8
  %56 = getelementptr inbounds i8, ptr %.0, i64 16
  %57 = load ptr, ptr %56, align 8
  %.not.i36 = icmp eq ptr %57, null
  %.phi.trans.insert.i37 = getelementptr inbounds i8, ptr %.0, i64 24
  %.pre.i38 = load ptr, ptr %.phi.trans.insert.i37, align 8
  br i1 %.not.i36, label %sljit_remove_free_block.exit41, label %58

58:                                               ; preds = %55
  %59 = getelementptr inbounds i8, ptr %57, i64 24
  store ptr %.pre.i38, ptr %59, align 8
  %.pre42 = load ptr, ptr %56, align 8
  br label %sljit_remove_free_block.exit41

sljit_remove_free_block.exit41:                   ; preds = %55, %58
  %60 = phi ptr [ null, %55 ], [ %.pre42, %58 ]
  %.not8.i39 = icmp eq ptr %.pre.i38, null
  %61 = getelementptr inbounds i8, ptr %.pre.i38, i64 16
  %free_blocks.sink.i40 = select i1 %.not8.i39, ptr @free_blocks, ptr %61
  store ptr %60, ptr %free_blocks.sink.i40, align 8
  %62 = load i64, ptr %25, align 8
  %63 = add i64 %62, 16
  %64 = tail call i32 @munmap(ptr noundef nonnull %.0, i64 noundef %63) #18
  br label %.critedge

.critedge:                                        ; preds = %42, %49, %sljit_remove_free_block.exit41, %46
  %65 = tail call i32 @pthread_mutex_unlock(ptr noundef nonnull @allocator_lock) #18
  ret void
}